Certificate:
    Data:
        Version: 3 (0x2)
        Serial Number: 1 (0x1)
    Signature Algorithm: sha1WithRSAEncryption
        Issuer: C=US, ST=Pennsylvania, L=Pittsburgh, O=My Network, OU=My Certificate Authority, CN=www.sunyangkobe.com/emailAddress=yksun@cs.cmu.edu
        Validity
            Not Before: Sep 25 03:17:29 2012 GMT
            Not After : Sep 25 03:17:29 2013 GMT
        Subject: C=US, ST=Pennsylvania, L=Pittsburgh, O=My Network, OU=My Web Server, CN=www.sunyangkobe.com/emailAddress=yksun@cs.cmu.edu
        Subject Public Key Info:
            Public Key Algorithm: rsaEncryption
                Public-Key: (1024 bit)
                Modulus:
                    00:c8:80:78:de:88:1e:6e:d3:f0:c2:32:a6:a3:7b:
                    87:44:79:28:0e:7c:a9:23:92:e1:be:21:90:25:2d:
                    6d:a5:3c:62:51:9a:d4:3d:60:53:93:b0:35:32:53:
                    89:b8:24:e9:67:bd:81:95:a9:30:f2:b6:fb:cc:83:
                    ba:ea:da:a0:a1:95:6f:67:ee:b3:01:ad:42:c4:e3:
                    4a:7b:06:33:9d:9b:eb:fb:a3:04:2b:32:30:24:80:
                    76:c0:e3:85:13:03:9d:52:56:83:46:ae:b2:fa:a5:
                    8c:16:e9:b3:26:40:2e:3f:88:ab:99:fd:98:34:d7:
                    62:9c:25:c6:7d:0f:81:56:33
                Exponent: 65537 (0x10001)
        X509v3 extensions:
            X509v3 Basic Constraints: 
                CA:FALSE
            Netscape Comment: 
                OpenSSL Generated Certificate
            X509v3 Subject Key Identifier: 
                35:C4:92:3B:D2:94:97:1C:78:64:5D:04:D7:40:98:79:A5:FE:38:05
            X509v3 Authority Key Identifier: 
                keyid:55:93:32:94:49:48:B6:23:D3:40:2A:52:1D:2F:B9:D0:71:F7:E6:AE

    Signature Algorithm: sha1WithRSAEncryption
         5a:1f:03:31:d6:e1:84:01:33:d7:a4:60:43:9e:eb:3c:49:fe:
         c6:07:4e:9c:79:f3:ea:21:10:2b:7a:d1:89:41:1b:9e:3d:d5:
         3e:ac:69:36:ea:12:f1:cf:5d:e7:71:8a:94:21:26:26:b3:88:
         e4:48:fa:ef:7c:99:af:bd:88:94:bd:8f:e1:47:50:cd:00:ba:
         74:29:92:a2:51:02:8e:3f:a8:d3:ae:e5:2d:92:64:e8:6d:3a:
         49:fb:56:07:7b:cc:fe:41:4e:38:c3:e7:0f:c8:6c:f7:3c:46:
         16:12:88:d4:dd:8c:c4:c0:10:49:80:f5:62:b3:2f:62:ca:5c:
         64:02
-----BEGIN CERTIFICATE-----
MIIDSDCCArGgAwIBAgIBATANBgkqhkiG9w0BAQUFADCBsDELMAkGA1UEBhMCVVMx
FTATBgNVBAgMDFBlbm5zeWx2YW5pYTETMBEGA1UEBwwKUGl0dHNidXJnaDETMBEG
A1UECgwKTXkgTmV0d29yazEhMB8GA1UECwwYTXkgQ2VydGlmaWNhdGUgQXV0aG9y
aXR5MRwwGgYDVQQDDBN3d3cuc3VueWFuZ2tvYmUuY29tMR8wHQYJKoZIhvcNAQkB
FhB5a3N1bkBjcy5jbXUuZWR1MB4XDTEyMDkyNTAzMTcyOVoXDTEzMDkyNTAzMTcy
OVowgaUxCzAJBgNVBAYTAlVTMRUwEwYDVQQIDAxQZW5uc3lsdmFuaWExEzARBgNV
BAcMClBpdHRzYnVyZ2gxEzARBgNVBAoMCk15IE5ldHdvcmsxFjAUBgNVBAsMDU15
IFdlYiBTZXJ2ZXIxHDAaBgNVBAMME3d3dy5zdW55YW5na29iZS5jb20xHzAdBgkq
hkiG9w0BCQEWEHlrc3VuQGNzLmNtdS5lZHUwgZ8wDQYJKoZIhvcNAQEBBQADgY0A
MIGJAoGBAMiAeN6IHm7T8MIypqN7h0R5KA58qSOS4b4hkCUtbaU8YlGa1D1gU5Ow
NTJTibgk6We9gZWpMPK2+8yDuuraoKGVb2fuswGtQsTjSnsGM52b6/ujBCsyMCSA
dsDjhRMDnVJWg0ausvqljBbpsyZALj+Iq5n9mDTXYpwlxn0PgVYzAgMBAAGjezB5
MAkGA1UdEwQCMAAwLAYJYIZIAYb4QgENBB8WHU9wZW5TU0wgR2VuZXJhdGVkIENl
cnRpZmljYXRlMB0GA1UdDgQWBBQ1xJI70pSXHHhkXQTXQJh5pf44BTAfBgNVHSME
GDAWgBRVkzKUSUi2I9NAKlIdL7nQcffmrjANBgkqhkiG9w0BAQUFAAOBgQBaHwMx
1uGEATPXpGBDnus8Sf7GB06cefPqIRAretGJQRuePdU+rGk26hLxz13ncYqUISYm
s4jkSPrvfJmvvYiUvY/hR1DNALp0KZKiUQKOP6jTruUtkmTobTpJ+1YHe8z+QU44
w+cPyGz3PEYWEojU3YzEwBBJgPVisy9iylxkAg==
-----END CERTIFICATE-----
